target datalayout = "e-m:e-p270:32:32-p271:32:32-p272:64:64-i64:64-i128:128-f80:128-n8:16:32:64-S128"
target triple = "x86_64-pc-linux-gnu"

%struct.anon = type { i32, i32 }

@_ZL7version = internal global %struct.anon zeroinitializer, align 4

; Function Attrs: mustprogress nounwind uwtable
define dso_local i32 @imgl3wIsSupported(i32 noundef %0, i32 noundef %1) #3 {
  %3 = alloca i32, align 4
  %4 = alloca i32, align 4
  %5 = alloca i32, align 4
  store i32 %0, ptr %4, align 4, !tbaa !4
  store i32 %1, ptr %5, align 4, !tbaa !4
  %6 = load i32, ptr %4, align 4, !tbaa !4
  %7 = icmp slt i32 %6, 2
  br i1 %7, label %8, label %9

8:                                                ; preds = %2
  store i32 0, ptr %3, align 4
  br label %23

9:                                                ; preds = %2
  %10 = load i32, ptr @_ZL7version, align 4, !tbaa !17
  %11 = load i32, ptr %4, align 4, !tbaa !4
  %12 = icmp eq i32 %10, %11
  br i1 %12, label %13, label %18

13:                                               ; preds = %9
  %14 = load i32, ptr getelementptr inbounds nuw (%struct.anon, ptr @_ZL7version, i32 0, i32 1), align 4, !tbaa !19
  %15 = load i32, ptr %5, align 4, !tbaa !4
  %16 = icmp sge i32 %14, %15
  %17 = zext i1 %16 to i32
  store i32 %17, ptr %3, align 4
  br label %23

18:                                               ; preds = %9
  %19 = load i32, ptr @_ZL7version, align 4, !tbaa !17
  %20 = load i32, ptr %4, align 4, !tbaa !4
  %21 = icmp sge i32 %19, %20
  %22 = zext i1 %21 to i32
  store i32 %22, ptr %3, align 4
  br label %23

23:                                               ; preds = %18, %13, %8
  %24 = load i32, ptr %3, align 4
  ret i32 %24
}