; Function Attrs: mustprogress nofree norecurse nosync nounwind willreturn memory(read, argmem: none, inaccessiblemem: none) uwtable
define dso_local range(i32 0, 2) i32 @imgl3wIsSupported(i32 noundef %0, i32 noundef %1) local_unnamed_addr #4 {
  %3 = icmp slt i32 %0, 2
  br i1 %3, label %12, label %4

4:                                                ; preds = %2
  %5 = load i32, ptr @_ZL7version, align 4, !tbaa !13
  %6 = icmp eq i32 %5, %0
  br i1 %6, label %7, label %10

7:                                                ; preds = %4
  %8 = load i32, ptr getelementptr inbounds nuw (i8, ptr @_ZL7version, i64 4), align 4, !tbaa !16
  %9 = icmp sge i32 %8, %1
  br label %12

10:                                               ; preds = %4
  %11 = icmp sge i32 %5, %0
  br label %12

12:                                               ; preds = %2, %10, %7
  %.0.shrunk = phi i1 [ %9, %7 ], [ %11, %10 ], [ false, %2 ]
  %.0 = zext i1 %.0.shrunk to i32
  ret i32 %.0
}